; Function Attrs: mustprogress nofree norecurse nosync nounwind willreturn memory(argmem: readwrite) uwtable
define internal nonnull ptr @Pack6Words(ptr nocapture readnone %0, ptr nocapture noundef readonly %1, ptr noundef writeonly %2, i32 %3) #3 {
  %5 = load i16, ptr %1, align 2
  store i16 %5, ptr %2, align 2
  %6 = getelementptr inbounds i8, ptr %2, i64 2
  %7 = getelementptr inbounds i8, ptr %1, i64 2
  %8 = load i16, ptr %7, align 2
  store i16 %8, ptr %6, align 2
  %9 = getelementptr inbounds i8, ptr %2, i64 4
  %10 = getelementptr inbounds i8, ptr %1, i64 4
  %11 = load i16, ptr %10, align 2
  store i16 %11, ptr %9, align 2
  %12 = getelementptr inbounds i8, ptr %2, i64 6
  %13 = getelementptr inbounds i8, ptr %1, i64 6
  %14 = load i16, ptr %13, align 2
  store i16 %14, ptr %12, align 2
  %15 = getelementptr inbounds i8, ptr %2, i64 8
  %16 = getelementptr inbounds i8, ptr %1, i64 8
  %17 = load i16, ptr %16, align 2
  store i16 %17, ptr %15, align 2
  %18 = getelementptr inbounds i8, ptr %2, i64 10
  %19 = getelementptr inbounds i8, ptr %1, i64 10
  %20 = load i16, ptr %19, align 2
  store i16 %20, ptr %18, align 2
  %21 = getelementptr inbounds i8, ptr %2, i64 12
  ret ptr %21
}